target datalayout = "e-m:e-p270:32:32-p271:32:32-p272:64:64-i64:64-i128:128-f80:128-n8:16:32:64-S128"
target triple = "x86_64-pc-linux-gnu"

%"class.llvm::CrashRecoveryContext" = type <{ ptr, ptr, i32, i8, [3 x i8] }>
%"class.llvm::CrashRecoveryContextCleanup" = type { ptr, ptr, i8, ptr, ptr }

; Function Attrs: mustprogress nounwind uwtable
define dso_local void @_ZN4llvm20CrashRecoveryContext17unregisterCleanupEPNS_27CrashRecoveryContextCleanupE(ptr noundef nonnull align 8 dereferenceable(21) %0, ptr noundef %1) #0 align 2 {
  %3 = alloca ptr, align 8
  %4 = alloca ptr, align 8
  store ptr %0, ptr %3, align 8
  store ptr %1, ptr %4, align 8
  %5 = load ptr, ptr %3, align 8
  %6 = load ptr, ptr %4, align 8
  %7 = icmp ne ptr %6, null
  br i1 %7, label %9, label %8

8:                                                ; preds = %2
  br label %55

9:                                                ; preds = %2
  %10 = load ptr, ptr %4, align 8
  %11 = getelementptr inbounds nuw %"class.llvm::CrashRecoveryContext", ptr %5, i32 0, i32 1
  %12 = load ptr, ptr %11, align 8
  %13 = icmp eq ptr %10, %12
  br i1 %13, label %14, label %27

14:                                               ; preds = %9
  %15 = load ptr, ptr %4, align 8
  %16 = getelementptr inbounds nuw %"class.llvm::CrashRecoveryContextCleanup", ptr %15, i32 0, i32 4
  %17 = load ptr, ptr %16, align 8
  %18 = getelementptr inbounds nuw %"class.llvm::CrashRecoveryContext", ptr %5, i32 0, i32 1
  store ptr %17, ptr %18, align 8
  %19 = getelementptr inbounds nuw %"class.llvm::CrashRecoveryContext", ptr %5, i32 0, i32 1
  %20 = load ptr, ptr %19, align 8
  %21 = icmp ne ptr %20, null
  br i1 %21, label %22, label %26

22:                                               ; preds = %14
  %23 = getelementptr inbounds nuw %"class.llvm::CrashRecoveryContext", ptr %5, i32 0, i32 1
  %24 = load ptr, ptr %23, align 8
  %25 = getelementptr inbounds nuw %"class.llvm::CrashRecoveryContextCleanup", ptr %24, i32 0, i32 3
  store ptr null, ptr %25, align 8
  br label %26

26:                                               ; preds = %22, %14
  br label %48

27:                                               ; preds = %9
  %28 = load ptr, ptr %4, align 8
  %29 = getelementptr inbounds nuw %"class.llvm::CrashRecoveryContextCleanup", ptr %28, i32 0, i32 4
  %30 = load ptr, ptr %29, align 8
  %31 = load ptr, ptr %4, align 8
  %32 = getelementptr inbounds nuw %"class.llvm::CrashRecoveryContextCleanup", ptr %31, i32 0, i32 3
  %33 = load ptr, ptr %32, align 8
  %34 = getelementptr inbounds nuw %"class.llvm::CrashRecoveryContextCleanup", ptr %33, i32 0, i32 4
  store ptr %30, ptr %34, align 8
  %35 = load ptr, ptr %4, align 8
  %36 = getelementptr inbounds nuw %"class.llvm::CrashRecoveryContextCleanup", ptr %35, i32 0, i32 4
  %37 = load ptr, ptr %36, align 8
  %38 = icmp ne ptr %37, null
  br i1 %38, label %39, label %47

39:                                               ; preds = %27
  %40 = load ptr, ptr %4, align 8
  %41 = getelementptr inbounds nuw %"class.llvm::CrashRecoveryContextCleanup", ptr %40, i32 0, i32 3
  %42 = load ptr, ptr %41, align 8
  %43 = load ptr, ptr %4, align 8
  %44 = getelementptr inbounds nuw %"class.llvm::CrashRecoveryContextCleanup", ptr %43, i32 0, i32 4
  %45 = load ptr, ptr %44, align 8
  %46 = getelementptr inbounds nuw %"class.llvm::CrashRecoveryContextCleanup", ptr %45, i32 0, i32 3
  store ptr %42, ptr %46, align 8
  br label %47

47:                                               ; preds = %39, %27
  br label %48

48:                                               ; preds = %47, %26
  %49 = load ptr, ptr %4, align 8
  %50 = icmp eq ptr %49, null
  br i1 %50, label %55, label %51

51:                                               ; preds = %48
  %52 = load ptr, ptr %49, align 8
  %53 = getelementptr inbounds ptr, ptr %52, i64 1
  %54 = load ptr, ptr %53, align 8
  call void %54(ptr noundef nonnull align 8 dereferenceable(40) %49) #13
  br label %55

55:                                               ; preds = %51, %48, %8
  ret void
}