; Function Attrs: mustprogress nounwind uwtable
define dso_local void @_ZN4llvm20CrashRecoveryContext17unregisterCleanupEPNS_27CrashRecoveryContextCleanupE(ptr nocapture noundef nonnull align 8 dereferenceable(21) %0, ptr noundef %1) local_unnamed_addr #3 align 2 {
  %.not = icmp eq ptr %1, null
  br i1 %.not, label %21, label %3

3:                                                ; preds = %2
  %4 = getelementptr inbounds nuw i8, ptr %0, i64 8
  %5 = load ptr, ptr %4, align 8
  %6 = icmp eq ptr %1, %5
  %7 = getelementptr inbounds nuw i8, ptr %1, i64 32
  %8 = load ptr, ptr %7, align 8
  br i1 %6, label %9, label %10

9:                                                ; preds = %3
  store ptr %8, ptr %4, align 8
  %.not13 = icmp eq ptr %8, null
  br i1 %.not13, label %17, label %.sink.split

10:                                               ; preds = %3
  %11 = getelementptr inbounds nuw i8, ptr %1, i64 24
  %12 = load ptr, ptr %11, align 8
  %13 = getelementptr inbounds nuw i8, ptr %12, i64 32
  store ptr %8, ptr %13, align 8
  %.not12 = icmp eq ptr %8, null
  br i1 %.not12, label %17, label %14

14:                                               ; preds = %10
  %15 = load ptr, ptr %11, align 8
  br label %.sink.split

.sink.split:                                      ; preds = %9, %14
  %.sink = phi ptr [ %15, %14 ], [ null, %9 ]
  %16 = getelementptr inbounds nuw i8, ptr %8, i64 24
  store ptr %.sink, ptr %16, align 8
  br label %17

17:                                               ; preds = %.sink.split, %9, %10
  %18 = load ptr, ptr %1, align 8
  %19 = getelementptr inbounds i8, ptr %18, i64 8
  %20 = load ptr, ptr %19, align 8
  tail call void %20(ptr noundef nonnull align 8 dereferenceable(40) %1) #19
  br label %21

21:                                               ; preds = %2, %17
  ret void
}